(dp0
VPMS 3258
p1
(dp2
S'RGB'
p3
(I53
I196
I175
tp4
ssVPMS 1615
p5
(dp6
g3
(I132
I63
I15
tp7
ssVPMS 2655
p8
(dp9
g3
(I155
I109
I198
tp10
ssVPMS 1595
p11
(dp12
g3
(I209
I91
I5
tp13
ssVPMS 348
p14
(dp15
g3
(I0
I135
I81
tp16
ssVPMS 3252
p17
(dp18
g3
(I86
I214
I201
tp19
ssVPMS 3255
p20
(dp21
g3
(I71
I214
I193
tp22
ssVPMS 349
p23
(dp24
g3
(I0
I107
I63
tp25
ssVPMS 4625
p26
(dp27
g3
(I71
I35
I17
tp28
ssVPMS 159
p29
(dp30
g3
(I198
I96
I5
tp31
ssVPMS 158
p32
(dp33
g3
(I232
I117
I17
tp34
ssVPMS 151
p35
(dp36
g3
(I247
I127
I0
tp37
ssVPMS 150
p38
(dp39
g3
(I252
I173
I86
tp40
ssVPMS 153
p41
(dp42
g3
(I188
I109
I10
tp43
ssVPMS 152
p44
(dp45
g3
(I221
I117
I0
tp46
ssVPMS 155
p47
(dp48
g3
(I244
I219
I170
tp49
ssVPMS 154
p50
(dp51
g3
(I153
I89
I5
tp52
ssVPMS 157
p53
(dp54
g3
(I237
I160
I79
tp55
ssVPMS 156
p56
(dp57
g3
(I242
I198
I140
tp58
ssVPMS 5803
p59
(dp60
g3
(I216
I214
I183
tp61
ssVPMS 3385
p62
(dp63
g3
(I84
I216
I168
tp64
ssVPMS 1505
p65
(dp66
g3
(I244
I124
I0
tp67
ssVPMS 2727
p68
(dp69
g3
(I94
I104
I196
tp70
ssVPMS 2726
p71
(dp72
g3
(I102
I86
I188
tp73
ssVPMS 2725
p74
(dp75
g3
(I114
I81
I188
tp76
ssVPMS 3955
p77
(dp78
g3
(I237
I226
I17
tp79
ssVPMS 532
p80
(dp81
g3
(I53
I56
I66
tp82
ssVPMS 1375
p83
(dp84
g3
(I249
I155
I12
tp85
ssVPMS 531
p86
(dp87
g3
(I229
I198
I219
tp88
ssVPMS 2577
p89
(dp90
g3
(I170
I114
I191
tp91
ssVPMS 439
p92
(dp93
g3
(I73
I53
I51
tp94
ssVPMS 2572
p95
(dp96
g3
(I198
I135
I209
tp97
ssVPMS 2573
p98
(dp99
g3
(I186
I124
I188
tp100
ssVPMS 368 2X
p101
(dp102
g3
(I0
I158
I15
tp103
ssVPMS 1685
p104
(dp105
g3
(I132
I53
I17
tp106
ssVPMS 3415
p107
(dp108
g3
(I0
I124
I89
tp109
ssVPMS 809
p110
(dp111
g3
(I221
I224
I15
tp112
ssVPMS 322
p113
(dp114
g3
(I0
I114
I114
tp115
ssVPMS 708
p116
(dp117
g3
(I249
I142
I153
tp118
ssVPMS 5875
p119
(dp120
g3
(I224
I219
I181
tp121
ssVPMS 323
p122
(dp123
g3
(I0
I102
I99
tp124
ssVPMS 704
p125
(dp126
g3
(I158
I40
I40
tp127
ssVPMS 705
p128
(dp129
g3
(I249
I221
I214
tp130
ssVPMS 706
p131
(dp132
g3
(I252
I201
I198
tp133
ssVPMS 707
p134
(dp135
g3
(I252
I173
I175
tp136
ssVPMS 700
p137
(dp138
g3
(I242
I165
I170
tp139
ssVPMS 467
p140
(dp141
g3
(I221
I204
I165
tp142
ssVPMS 702
p143
(dp144
g3
(I214
I96
I109
tp145
ssVPMS 2975
p146
(dp147
g3
(I186
I224
I226
tp148
ssVPMS 539
p149
(dp150
g3
(I0
I48
I73
tp151
ssVPMS 1205
p152
(dp153
g3
(I247
I232
I170
tp154
ssVPMS 326
p155
(dp156
g3
(I0
I178
I170
tp157
ssVPMS 538
p158
(dp159
g3
(I214
I211
I214
tp160
ssVPMS 5825
p161
(dp162
g3
(I117
I112
I43
tp163
ssVPMS 4535
p164
(dp165
g3
(I219
I206
I165
tp166
ssVPMS 466
p167
(dp168
g3
(I209
I191
I145
tp169
ssVPMS 468
p170
(dp171
g3
(I226
I214
I181
tp172
ssVPMS 2375
p173
(dp174
g3
(I234
I107
I191
tp175
ssVPMS 3262
p176
(dp177
g3
(I0
I193
I181
tp178
ssVPMS 5005
p179
(dp180
g3
(I188
I135
I135
tp181
ssVPMS 813 2X
p182
(dp183
g3
(I209
I0
I132
tp184
ssVPMS 3265
p185
(dp186
g3
(I0
I198
I178
tp187
ssVPMS 649
p188
(dp189
g3
(I214
I214
I216
tp190
ssVPMS 328
p191
(dp192
g3
(I0
I119
I112
tp193
ssVPMS 5797
p194
(dp195
g3
(I211
I209
I170
tp196
ssVPMS 329
p197
(dp198
g3
(I0
I109
I102
tp199
ssVPMS 666
p200
(dp201
g3
(I168
I147
I173
tp202
ssVPMS 638
p203
(dp204
g3
(I0
I181
I214
tp205
ssVPMS 639
p206
(dp207
g3
(I0
I160
I196
tp208
ssVPMS 5487
p209
(dp210
g3
(I102
I124
I114
tp211
ssVPMS 631
p212
(dp213
g3
(I84
I183
I198
tp214
ssVPMS 632
p215
(dp216
g3
(I0
I160
I186
tp217
ssVPMS 633
p218
(dp219
g3
(I0
I127
I153
tp220
ssVPMS 2385
p221
(dp222
g3
(I219
I40
I165
tp223
ssVPMS 635
p224
(dp225
g3
(I186
I224
I224
tp226
ssVPMS 636
p227
(dp228
g3
(I153
I214
I221
tp229
ssVPMS 637
p230
(dp231
g3
(I107
I201
I219
tp232
ssVPMS 661
p233
(dp234
g3
(I45
I51
I142
tp235
ssVPMS 551
p236
(dp237
g3
(I163
I193
I201
tp238
ssVPMS 509
p239
(dp240
g3
(I242
I186
I191
tp241
ssVPMS 471 2X
p242
(dp243
g3
(I163
I68
I2
tp244
ssVPMS 5787
p245
(dp246
g3
(I198
I198
I153
tp247
ssVPMS 528
p248
(dp249
g3
(I175
I114
I193
tp250
ssVPMS 801 2X
p251
(dp252
g3
(I0
I137
I175
tp253
ssVPMS 3985
p254
(dp255
g3
(I153
I140
I10
tp256
ssVPMS 378
p257
(dp258
g3
(I86
I99
I20
tp259
ssVPMS 5503
p260
(dp261
g3
(I170
I196
I191
tp262
ssVPMS 550
p263
(dp264
g3
(I135
I175
I191
tp265
ssVPMS 278
p266
(dp267
g3
(I153
I186
I221
tp268
ssVPMS 279
p269
(dp270
g3
(I102
I137
I204
tp271
ssVPMS 373
p272
(dp273
g3
(I206
I234
I130
tp274
ssVPMS 372
p275
(dp276
g3
(I216
I237
I150
tp277
ssVPMS 375
p278
(dp279
g3
(I140
I214
I0
tp280
ssVPMS 374
p281
(dp282
g3
(I186
I232
I96
tp283
ssVPMS 377
p284
(dp285
g3
(I112
I147
I2
tp286
ssVPMS 376
p287
(dp288
g3
(I127
I186
I0
tp289
ssVPMS 270
p290
(dp291
g3
(I186
I175
I211
tp292
ssVPMS 271
p293
(dp294
g3
(I158
I145
I198
tp295
ssVPMS 272
p296
(dp297
g3
(I137
I119
I186
tp298
ssVPMS 273
p299
(dp300
g3
(I56
I25
I122
tp301
ssVPMS 274
p302
(dp303
g3
(I43
I17
I102
tp304
ssVPMS 275
p305
(dp306
g3
(I38
I15
I84
tp307
ssVPMS 276
p308
(dp309
g3
(I43
I33
I71
tp310
ssVPMS 277
p311
(dp312
g3
(I181
I209
I232
tp313
ssVPMS 3005
p314
(dp315
g3
(I0
I132
I201
tp316
ssVPMS 525
p317
(dp318
g3
(I81
I38
I84
tp319
ssVPMS 449
p320
(dp321
g3
(I84
I71
I38
tp322
ssVPMS 448
p323
(dp324
g3
(I84
I71
I45
tp325
ssVPMS 520
p326
(dp327
g3
(I112
I53
I114
tp328
ssVPMS 521
p329
(dp330
g3
(I181
I140
I178
tp331
ssVPMS 522
p332
(dp333
g3
(I198
I163
I193
tp334
ssVPMS 523
p335
(dp336
g3
(I211
I183
I204
tp337
ssVPMS 443
p338
(dp339
g3
(I163
I168
I163
tp340
ssVPMS 442
p341
(dp342
g3
(I186
I191
I183
tp343
ssVPMS 441
p344
(dp345
g3
(I209
I209
I198
tp346
ssVPMS 440
p347
(dp348
g3
(I63
I48
I43
tp349
ssVPMS 447
p350
(dp351
g3
(I63
I63
I56
tp352
ssVPMS 446
p353
(dp354
g3
(I73
I76
I73
tp355
ssVPMS 445
p356
(dp357
g3
(I86
I89
I89
tp358
ssVPMS 444
p359
(dp360
g3
(I137
I142
I140
tp361
ssVPMS 2756
p362
(dp363
g3
(I51
I40
I117
tp364
ssVPMS 2757
p365
(dp366
g3
(I20
I22
I84
tp367
ssVPMS 2755
p368
(dp369
g3
(I53
I0
I109
tp370
ssVPMS 559
p371
(dp372
g3
(I198
I214
I196
tp373
ssVPMS 2758
p374
(dp375
g3
(I25
I33
I104
tp376
ssVPMS 5305
p377
(dp378
g3
(I204
I193
I198
tp379
ssVPMS 4665
p380
(dp381
g3
(I216
I181
I150
tp382
ssVPMS 119
p383
(dp384
g3
(I137
I119
I25
tp385
ssVPMS 118
p386
(dp387
g3
(I170
I142
I10
tp388
ssVPMS 115
p389
(dp390
g3
(I249
I224
I76
tp391
ssVPMS 114
p392
(dp393
g3
(I249
I226
I76
tp394
ssVPMS 117
p395
(dp396
g3
(I198
I160
I12
tp397
ssVPMS 116
p398
(dp399
g3
(I252
I209
I22
tp400
ssVPMS 111
p401
(dp402
g3
(I170
I147
I10
tp403
ssVPMS 110
p404
(dp405
g3
(I216
I181
I17
tp406
ssVPMS 113
p407
(dp408
g3
(I249
I229
I91
tp409
ssVPMS 112
p410
(dp411
g3
(I153
I132
I10
tp412
ssVPMS 5225
p413
(dp414
g3
(I204
I173
I175
tp415
ssVPMS 806
p416
(dp417
g3
(I255
I0
I147
tp418
ssVPMS 804
p419
(dp420
g3
(I255
I147
I56
tp421
ssVPMS 4695
p422
(dp423
g3
(I81
I38
I28
tp424
ssVPMS 1235
p425
(dp426
g3
(I252
I181
I20
tp427
ssVPMS 811 2X
p428
(dp429
g3
(I255
I84
I22
tp430
ssVPMS 5615
p431
(dp432
g3
(I84
I104
I86
tp433
ssVPMS 2728
p434
(dp435
g3
(I48
I68
I181
tp436
ssVPMS 600
p437
(dp438
g3
(I244
I237
I175
tp439
ssVPMS 182
p440
(dp441
g3
(I249
I191
I193
tp442
ssVPMS 183
p443
(dp444
g3
(I252
I140
I153
tp445
ssVPMS 180
p446
(dp447
g3
(I193
I56
I40
tp448
ssVPMS 181
p449
(dp450
g3
(I124
I45
I35
tp451
ssVPMS 186
p452
(dp453
g3
(I206
I17
I38
tp454
ssVPMS 187
p455
(dp456
g3
(I175
I30
I45
tp457
ssVPMS 184
p458
(dp459
g3
(I252
I94
I114
tp460
ssVPMS 185
p461
(dp462
g3
(I232
I17
I45
tp463
ssVPMS 2587
p464
(dp465
g3
(I142
I71
I173
tp466
ssVPMS 188
p467
(dp468
g3
(I124
I33
I40
tp469
ssVPMS 189
p470
(dp471
g3
(I255
I163
I178
tp472
ssVPMS 2583
p473
(dp474
g3
(I158
I79
I165
tp475
ssVPMS 2582
p476
(dp477
g3
(I170
I71
I186
tp478
ssVPMS 1655
p479
(dp480
g3
(I249
I86
I2
tp481
ssVPMS 2617
p482
(dp483
g3
(I86
I12
I112
tp484
ssVPMS 306 2X
p485
(dp486
g3
(I0
I163
I209
tp487
ssVPMS 1555
p488
(dp489
g3
(I249
I191
I158
tp490
ssVPMS 2612
p491
(dp492
g3
(I112
I30
I114
tp493
ssVPMS 380
p494
(dp495
g3
(I214
I229
I66
tp496
ssVPMS 381
p497
(dp498
g3
(I204
I226
I38
tp499
ssVPMS 382
p500
(dp501
g3
(I186
I216
I10
tp502
ssVPMS 383
p503
(dp504
g3
(I163
I175
I7
tp505
ssVPMS 384
p506
(dp507
g3
(I147
I153
I5
tp508
ssVPMS 385
p509
(dp510
g3
(I112
I112
I20
tp511
ssVPMS 386
p512
(dp513
g3
(I232
I237
I96
tp514
ssVPMS 387
p515
(dp516
g3
(I224
I237
I68
tp517
ssVPMS 388
p518
(dp519
g3
(I214
I232
I15
tp520
ssVPMS 389
p521
(dp522
g3
(I206
I224
I7
tp523
ssVPMS 2405
p524
(dp525
g3
(I168
I0
I122
tp526
ssVPMS 1345
p527
(dp528
g3
(I255
I214
I145
tp529
ssVPMS 608
p530
(dp531
g3
(I239
I232
I173
tp532
ssVPMS 5767
p533
(dp534
g3
(I140
I145
I79
tp535
ssVPMS 5763
p536
(dp537
g3
(I119
I124
I79
tp538
ssVPMS 469
p539
(dp540
g3
(I96
I51
I17
tp541
ssVPMS 803 2X
p542
(dp543
g3
(I255
I216
I22
tp544
ssVPMS 628
p545
(dp546
g3
(I204
I226
I221
tp547
ssVPMS 2925
p548
(dp549
g3
(I0
I142
I214
tp550
ssVPMS 5815
p551
(dp552
g3
(I73
I68
I17
tp553
ssVPMS 5545
p554
(dp555
g3
(I79
I109
I94
tp556
ssVPMS 335
p557
(dp558
g3
(I0
I124
I102
tp559
ssVPMS 334
p560
(dp561
g3
(I0
I153
I124
tp562
ssVPMS 337
p563
(dp564
g3
(I155
I219
I193
tp565
ssVPMS 336
p566
(dp567
g3
(I0
I104
I84
tp568
ssVPMS 331
p569
(dp570
g3
(I186
I234
I214
tp571
ssVPMS 330
p572
(dp573
g3
(I0
I89
I81
tp574
ssVPMS 333
p575
(dp576
g3
(I94
I221
I193
tp577
ssVPMS 332
p578
(dp579
g3
(I160
I229
I206
tp580
ssVPMS 5205
p581
(dp582
g3
(I142
I104
I119
tp583
ssVPMS 1905
p584
(dp585
g3
(I252
I155
I178
tp586
ssVPMS 339
p587
(dp588
g3
(I0
I178
I140
tp589
ssVPMS 338
p590
(dp591
g3
(I122
I209
I181
tp592
ssVPMS 320 2X
p593
(dp594
g3
(I0
I127
I130
tp595
ssVPMS 489
p596
(dp597
g3
(I242
I209
I191
tp598
ssVPMS 488
p599
(dp600
g3
(I242
I196
I175
tp601
ssVPMS 487
p602
(dp603
g3
(I239
I181
I160
tp604
ssVPMS 486
p605
(dp606
g3
(I237
I158
I132
tp607
ssVPMS 485
p608
(dp609
g3
(I216
I30
I5
tp610
ssVPMS 3288
p611
(dp612
g3
(I0
I130
I112
tp613
ssVPMS 483
p614
(dp615
g3
(I107
I48
I33
tp616
ssVPMS 482
p617
(dp618
g3
(I229
I211
I193
tp619
ssVPMS 481
p620
(dp621
g3
(I224
I204
I186
tp622
ssVPMS 480
p623
(dp624
g3
(I211
I183
I163
tp625
ssVPMS 568
p626
(dp627
g3
(I0
I114
I99
tp628
ssVPMS 569
p629
(dp630
g3
(I0
I135
I114
tp631
ssVPMS 634
p632
(dp633
g3
(I0
I102
I127
tp634
ssVPMS 5655
p635
(dp636
g3
(I198
I204
I186
tp637
ssVPMS 645
p638
(dp639
g3
(I119
I150
I178
tp640
ssVPMS 644
p641
(dp642
g3
(I155
I175
I196
tp643
ssVPMS 647
p644
(dp645
g3
(I38
I84
I124
tp646
ssVPMS 646
p647
(dp648
g3
(I94
I130
I163
tp649
ssVPMS 560
p650
(dp651
g3
(I43
I76
I63
tp652
ssVPMS 561
p653
(dp654
g3
(I38
I102
I89
tp655
ssVPMS 562
p656
(dp657
g3
(I30
I122
I109
tp658
ssVPMS 563
p659
(dp660
g3
(I127
I188
I170
tp661
ssVPMS 564
p662
(dp663
g3
(I5
I112
I94
tp664
ssVPMS 565
p665
(dp666
g3
(I188
I219
I204
tp667
ssVPMS 566
p668
(dp669
g3
(I209
I226
I211
tp670
ssVPMS 567
p671
(dp672
g3
(I38
I81
I66
tp673
ssVPMS 5195
p674
(dp675
g3
(I89
I51
I68
tp676
ssVPMS 327 2X
p677
(dp678
g3
(I0
I137
I119
tp679
ssVPMS 3145
p680
(dp681
g3
(I0
I132
I142
tp682
ssVPMS 5483
p683
(dp684
g3
(I96
I145
I145
tp685
ssVPMS 5165
p686
(dp687
g3
(I224
I201
I204
tp688
ssVPMS 4705
p689
(dp690
g3
(I124
I81
I61
tp691
ssVPMS 5777
p692
(dp693
g3
(I170
I173
I117
tp694
ssVPMS 201
p695
(dp696
g3
(I163
I38
I56
tp697
ssVPMS 200
p698
(dp699
g3
(I196
I30
I58
tp700
ssVPMS 203
p701
(dp702
g3
(I242
I175
I193
tp703
ssVPMS 202
p704
(dp705
g3
(I140
I38
I51
tp706
ssVPMS 205
p707
(dp708
g3
(I229
I76
I124
tp709
ssVPMS 204
p710
(dp711
g3
(I237
I122
I158
tp712
ssVPMS 207
p713
(dp714
g3
(I192
I0
I78
tp715
ssVPMS 206
p716
(dp717
g3
(I211
I5
I71
tp718
ssVPMS 209
p719
(dp720
g3
(I117
I38
I61
tp721
ssVPMS 208
p722
(dp723
g3
(I142
I35
I68
tp724
ssVPMS 5145
p725
(dp726
g3
(I173
I135
I153
tp727
ssVPMS 3135
p728
(dp729
g3
(I0
I155
I170
tp730
ssVPMS 415
p731
(dp732
g3
(I163
I158
I140
tp733
ssVPMS 416
p734
(dp735
g3
(I142
I140
I122
tp736
ssVPMS 417
p737
(dp738
g3
(I119
I114
I99
tp739
ssVPMS 410
p740
(dp741
g3
(I124
I109
I99
tp742
ssVPMS 411
p743
(dp744
g3
(I102
I89
I76
tp745
ssVPMS 412
p746
(dp747
g3
(I61
I48
I40
tp748
ssVPMS 413
p749
(dp750
g3
(I198
I193
I178
tp751
ssVPMS 3035
p752
(dp753
g3
(I0
I68
I84
tp754
ssVPMS 5527
p755
(dp756
g3
(I206
I209
I198
tp757
ssVPMS 418
p758
(dp759
g3
(I96
I94
I79
tp760
ssVPMS 419
p761
(dp762
g3
(I40
I40
I33
tp763
ssVPMS 2665
p764
(dp765
g3
(I137
I79
I191
tp766
ssVPMS 1565
p767
(dp768
g3
(I252
I165
I119
tp769
ssVPMS 3242
p770
(dp771
g3
(I135
I221
I209
tp772
ssVPMS 3245
p773
(dp774
g3
(I140
I224
I209
tp775
ssVPMS 146
p776
(dp777
g3
(I158
I107
I5
tp778
ssVPMS 147
p779
(dp780
g3
(I114
I94
I38
tp781
ssVPMS 144
p782
(dp783
g3
(I226
I140
I5
tp784
ssVPMS 145
p785
(dp786
g3
(I198
I127
I7
tp787
ssVPMS 142
p788
(dp789
g3
(I242
I191
I73
tp790
ssVPMS 143
p791
(dp792
g3
(I239
I178
I45
tp793
ssVPMS 140
p794
(dp795
g3
(I122
I91
I17
tp796
ssVPMS 141
p797
(dp798
g3
(I242
I206
I104
tp799
ssVPMS 5155
p800
(dp801
g3
(I204
I175
I183
tp802
ssVPMS 148
p803
(dp804
g3
(I255
I214
I155
tp805
ssVPMS 149
p806
(dp807
g3
(I252
I204
I147
tp808
ssVPMS 130 2X
p809
(dp810
g3
(I226
I145
I0
tp811
ssVPMS 351
p812
(dp813
g3
(I181
I232
I191
tp814
ssVPMS 622
p815
(dp816
g3
(I193
I209
I191
tp817
ssVPMS 350
p818
(dp819
g3
(I35
I79
I51
tp820
ssVPMS 3395
p821
(dp822
g3
(I0
I201
I147
tp823
ssVPMS 5513
p824
(dp825
g3
(I206
I216
I209
tp826
ssVPMS 5315
p827
(dp828
g3
(I219
I211
I211
tp829
ssVPMS 699
p830
(dp831
g3
(I247
I191
I191
tp832
ssVPMS 2716
p833
(dp834
g3
(I165
I160
I214
tp835
ssVPMS 2717
p836
(dp837
g3
(I165
I186
I224
tp838
ssVPMS 2715
p839
(dp840
g3
(I147
I122
I204
tp841
ssVPMS 4985
p842
(dp843
g3
(I132
I73
I73
tp844
ssVPMS 2718
p845
(dp846
g3
(I91
I119
I204
tp847
ssVPMS 3965
p848
(dp849
g3
(I232
I221
I17
tp850
ssVPMS 2563
p851
(dp852
g3
(I209
I160
I204
tp853
ssVPMS 2562
p854
(dp855
g3
(I216
I168
I216
tp856
ssVPMS 5517
p857
(dp858
g3
(I201
I206
I196
tp859
ssVPMS 2567
p860
(dp861
g3
(I191
I147
I204
tp862
ssVPMS 485 2X
p863
(dp864
g3
(I204
I12
I0
tp865
ssVPMS 5645
p866
(dp867
g3
(I188
I193
I178
tp868
ssVPMS 1265
p869
(dp870
g3
(I124
I99
I22
tp871
ssVPMS 701
p872
(dp873
g3
(I232
I135
I142
tp874
ssVPMS 3405
p875
(dp876
g3
(I0
I178
I122
tp877
ssVPMS 359
p878
(dp879
g3
(I160
I219
I142
tp880
ssVPMS 698
p881
(dp882
g3
(I247
I209
I204
tp883
ssVPMS 358
p884
(dp885
g3
(I170
I221
I150
tp886
ssVPMS 690
p887
(dp888
g3
(I112
I35
I66
tp889
ssVPMS 808 2X
p890
(dp891
g3
(I0
I160
I135
tp892
ssVPMS 611
p893
(dp894
g3
(I214
I206
I73
tp895
ssVPMS 3308
p896
(dp897
g3
(I0
I68
I56
tp898
ssVPMS 2965
p899
(dp900
g3
(I0
I51
I76
tp901
ssVPMS 730
p902
(dp903
g3
(I170
I117
I63
tp904
ssVPMS 732
p905
(dp906
g3
(I96
I51
I10
tp907
ssVPMS 530
p908
(dp909
g3
(I214
I175
I214
tp910
ssVPMS 382 2X
p911
(dp912
g3
(I158
I196
I0
tp913
ssVPMS 814 2X
p914
(dp915
g3
(I112
I63
I175
tp916
ssVPMS 1767
p917
(dp918
g3
(I249
I178
I183
tp919
ssVPMS 1765
p920
(dp921
g3
(I249
I158
I163
tp922
ssVPMS 1605
p923
(dp924
g3
(I160
I79
I17
tp925
ssVPMS 5855
p926
(dp927
g3
(I204
I198
I147
tp928
ssVPMS 5585
p929
(dp930
g3
(I196
I206
I191
tp931
ssVPMS 5425
p932
(dp933
g3
(I132
I153
I165
tp934
ssVPMS 4525
p935
(dp936
g3
(I204
I191
I142
tp937
ssVPMS 1945
p938
(dp939
g3
(I168
I12
I53
tp940
ssVPMS 1788
p941
(dp942
g3
(I239
I43
I45
tp943
ssVPMS 2365
p944
(dp945
g3
(I247
I196
I216
tp946
ssVPMS 5035
p947
(dp948
g3
(I237
I206
I198
tp949
ssVPMS 803
p950
(dp951
g3
(I255
I237
I56
tp952
ssVPMS 802
p953
(dp954
g3
(I96
I221
I73
tp955
ssVPMS 801
p956
(dp957
g3
(I0
I170
I204
tp958
ssVPMS 807
p959
(dp960
g3
(I214
I0
I158
tp961
ssVPMS 1785
p962
(dp963
g3
(I252
I79
I89
tp964
ssVPMS 805
p965
(dp966
g3
(I249
I89
I81
tp967
ssVPMS 1787
p968
(dp969
g3
(I244
I63
I79
tp970
ssVPMS 605
p971
(dp972
g3
(I221
I206
I17
tp973
ssVPMS 604
p974
(dp975
g3
(I232
I221
I33
tp976
ssVPMS 607
p977
(dp978
g3
(I242
I234
I188
tp979
ssVPMS 606
p980
(dp981
g3
(I211
I191
I17
tp982
ssVPMS 601
p983
(dp984
g3
(I242
I237
I158
tp985
ssVPMS 193
p986
(dp987
g3
(I196
I0
I67
tp988
ssVPMS 603
p989
(dp990
g3
(I237
I232
I91
tp991
ssVPMS 602
p992
(dp993
g3
(I242
I234
I135
tp994
ssVPMS 5415
p995
(dp996
g3
(I96
I124
I140
tp997
ssVPMS 609
p998
(dp999
g3
(I234
I229
I150
tp1000
ssVPMS 5463
p1001
(dp1002
g3
(I0
I53
I58
tp1003
ssVPMS 5565
p1004
(dp1005
g3
(I150
I170
I153
tp1006
ssVPMS 165 2X
p1007
(dp1008
g3
(I234
I79
I0
tp1009
ssVPMS 2915
p1010
(dp1011
g3
(I96
I175
I221
tp1012
ssVPMS 5467
p1013
(dp1014
g3
(I25
I56
I51
tp1015
ssVPMS 731
p1016
(dp1017
g3
(I114
I63
I10
tp1018
ssVPMS 245
p1019
(dp1020
g3
(I232
I127
I201
tp1021
ssVPMS 244
p1022
(dp1023
g3
(I237
I160
I211
tp1024
ssVPMS 247
p1025
(dp1026
g3
(I183
I0
I142
tp1027
ssVPMS 246
p1028
(dp1029
g3
(I204
I0
I160
tp1030
ssVPMS 241
p1031
(dp1032
g3
(I173
I0
I117
tp1033
ssVPMS 240
p1034
(dp1035
g3
(I196
I15
I137
tp1036
ssVPMS 243
p1037
(dp1038
g3
(I242
I186
I216
tp1039
ssVPMS 242
p1040
(dp1041
g3
(I124
I28
I81
tp1042
ssVPMS 3995
p1043
(dp1044
g3
(I109
I96
I2
tp1045
ssVPMS 249
p1046
(dp1047
g3
(I127
I40
I96
tp1048
ssVPMS 248
p1049
(dp1050
g3
(I163
I5
I127
tp1051
ssVPMS 511
p1052
(dp1053
g3
(I96
I33
I68
tp1054
ssVPMS 3278
p1055
(dp1056
g3
(I0
I155
I132
tp1057
ssVPMS 368
p1058
(dp1059
g3
(I91
I191
I33
tp1060
ssVPMS 369
p1061
(dp1062
g3
(I86
I170
I28
tp1063
ssVPMS 366
p1064
(dp1065
g3
(I196
I229
I142
tp1066
ssVPMS 367
p1067
(dp1068
g3
(I170
I221
I109
tp1069
ssVPMS 364
p1070
(dp1071
g3
(I58
I119
I40
tp1072
ssVPMS 365
p1073
(dp1074
g3
(I211
I232
I163
tp1075
ssVPMS 362
p1076
(dp1077
g3
(I51
I158
I53
tp1078
ssVPMS 363
p1079
(dp1080
g3
(I61
I142
I51
tp1081
ssVPMS 360
p1082
(dp1083
g3
(I96
I198
I89
tp1084
ssVPMS 361
p1085
(dp1086
g3
(I30
I181
I58
tp1087
ssVPMS 458
p1088
(dp1089
g3
(I221
I204
I107
tp1090
ssVPMS 459
p1091
(dp1092
g3
(I226
I214
I124
tp1093
ssVPMS 513
p1094
(dp1095
g3
(I158
I35
I135
tp1096
ssVPMS 512
p1097
(dp1098
g3
(I132
I33
I107
tp1099
ssVPMS 515
p1100
(dp1101
g3
(I232
I163
I201
tp1102
ssVPMS 514
p1103
(dp1104
g3
(I216
I132
I188
tp1105
ssVPMS 517
p1106
(dp1107
g3
(I244
I204
I216
tp1108
ssVPMS 516
p1109
(dp1110
g3
(I242
I186
I211
tp1111
ssVPMS 450
p1112
(dp1113
g3
(I96
I84
I43
tp1114
ssVPMS 451
p1115
(dp1116
g3
(I173
I160
I122
tp1117
ssVPMS 452
p1118
(dp1119
g3
(I196
I183
I150
tp1120
ssVPMS 453
p1121
(dp1122
g3
(I214
I204
I175
tp1123
ssVPMS 454
p1124
(dp1125
g3
(I226
I216
I191
tp1126
ssVPMS 455
p1127
(dp1128
g3
(I102
I86
I20
tp1129
ssVPMS 456
p1130
(dp1131
g3
(I153
I135
I20
tp1132
ssVPMS 457
p1133
(dp1134
g3
(I181
I155
I12
tp1135
ssVPMS 722
p1136
(dp1137
g3
(I209
I142
I84
tp1138
ssVPMS 519
p1139
(dp1140
g3
(I99
I48
I94
tp1141
ssVPMS 108
p1142
(dp1143
g3
(I249
I221
I22
tp1144
ssVPMS 109
p1145
(dp1146
g3
(I249
I214
I22
tp1147
ssVPMS 518
p1148
(dp1149
g3
(I81
I45
I68
tp1150
ssVPMS 102
p1151
(dp1152
g3
(I249
I232
I20
tp1153
ssVPMS 103
p1154
(dp1155
g3
(I198
I173
I15
tp1156
ssVPMS 100
p1157
(dp1158
g3
(I244
I237
I124
tp1159
ssVPMS 101
p1160
(dp1161
g3
(I244
I237
I71
tp1162
ssVPMS 106
p1163
(dp1164
g3
(I247
I232
I89
tp1165
ssVPMS 107
p1166
(dp1167
g3
(I249
I229
I38
tp1168
ssVPMS 104
p1169
(dp1170
g3
(I173
I155
I12
tp1171
ssVPMS 105
p1172
(dp1173
g3
(I130
I117
I15
tp1174
ssVPMS 586
p1175
(dp1176
g3
(I226
I229
I132
tp1177
ssVPMS 806 2X
p1178
(dp1179
g3
(I247
I2
I124
tp1180
ssVPMS 3298
p1181
(dp1182
g3
(I0
I107
I91
tp1183
ssVPMS 3295
p1184
(dp1185
g3
(I0
I130
I114
tp1186
ssVPMS 5215
p1187
(dp1188
g3
(I181
I147
I155
tp1189
ssVPMS 3292
p1190
(dp1191
g3
(I0
I96
I86
tp1192
ssVPMS 807 2X
p1193
(dp1194
g3
(I191
I0
I140
tp1195
ssVPMS 3105
p1196
(dp1197
g3
(I127
I214
I219
tp1198
ssVPMS 5605
p1199
(dp1200
g3
(I35
I58
I45
tp1201
ssVPMS 4505
p1202
(dp1203
g3
(I160
I145
I81
tp1204
ssVPMS 1225
p1205
(dp1206
g3
(I255
I204
I73
tp1207
ssVPMS 484
p1208
(dp1209
g3
(I155
I48
I28
tp1210
ssVPMS 1635
p1211
(dp1212
g3
(I249
I142
I109
tp1213
ssVPMS 584
p1214
(dp1215
g3
(I206
I214
I73
tp1216
ssVPMS 641
p1217
(dp1218
g3
(I0
I122
I165
tp1219
ssVPMS 179
p1220
(dp1221
g3
(I226
I61
I40
tp1222
ssVPMS 178
p1223
(dp1224
g3
(I249
I94
I89
tp1225
ssVPMS 177
p1226
(dp1227
g3
(I249
I130
I127
tp1228
ssVPMS 176
p1229
(dp1230
g3
(I249
I175
I173
tp1231
ssVPMS 175
p1232
(dp1233
g3
(I109
I51
I33
tp1234
ssVPMS 174
p1235
(dp1236
g3
(I147
I51
I17
tp1237
ssVPMS 173
p1238
(dp1239
g3
(I209
I68
I20
tp1240
ssVPMS 172
p1241
(dp1242
g3
(I247
I73
I2
tp1243
ssVPMS 171
p1244
(dp1245
g3
(I249
I96
I58
tp1246
ssVPMS 170
p1247
(dp1248
g3
(I249
I137
I114
tp1249
ssVPMS 1645
p1250
(dp1251
g3
(I249
I114
I66
tp1252
ssVPMS 2748
p1253
(dp1254
g3
(I30
I28
I119
tp1255
ssVPMS 642
p1256
(dp1257
g3
(I209
I216
I216
tp1258
ssVPMS 2627
p1259
(dp1260
g3
(I76
I20
I94
tp1261
ssVPMS 1525
p1262
(dp1263
g3
(I181
I84
I0
tp1264
ssVPMS 2745
p1265
(dp1266
g3
(I63
I0
I119
tp1267
ssVPMS 2747
p1268
(dp1269
g3
(I28
I20
I107
tp1270
ssVPMS 2746
p1271
(dp1272
g3
(I63
I40
I147
tp1273
ssVPMS 703
p1274
(dp1275
g3
(I183
I56
I68
tp1276
ssVPMS 2415
p1277
(dp1278
g3
(I155
I0
I112
tp1279
ssVPMS 5773
p1280
(dp1281
g3
(I155
I158
I114
tp1282
ssVPMS 1355
p1283
(dp1284
g3
(I252
I206
I135
tp1285
ssVPMS 5865
p1286
(dp1287
g3
(I214
I206
I163
tp1288
ssVPMS 648
p1289
(dp1290
g3
(I0
I48
I94
tp1291
ssVPMS 1535
p1292
(dp1293
g3
(I140
I68
I0
tp1294
ssVPMS 5753
p1295
(dp1296
g3
(I94
I102
I58
tp1297
ssVPMS 660
p1298
(dp1299
g3
(I89
I96
I168
tp1300
ssVPMS 4675
p1301
(dp1302
g3
(I229
I198
I170
tp1303
ssVPMS 2955
p1304
(dp1305
g3
(I0
I61
I107
tp1306
ssVPMS 582
p1307
(dp1308
g3
(I135
I137
I5
tp1309
ssVPMS 808
p1310
(dp1311
g3
(I0
I181
I155
tp1312
ssVPMS 802 2X
p1313
(dp1314
g3
(I28
I206
I40
tp1315
ssVPMS 5555
p1316
(dp1317
g3
(I119
I145
I130
tp1318
ssVPMS 5807
p1319
(dp1320
g3
(I224
I221
I188
tp1321
ssVPMS 289
p1322
(dp1323
g3
(I0
I38
I73
tp1324
ssVPMS 288
p1325
(dp1326
g3
(I0
I51
I127
tp1327
ssVPMS 320
p1328
(dp1329
g3
(I0
I158
I160
tp1330
ssVPMS 321
p1331
(dp1332
g3
(I0
I135
I137
tp1333
ssVPMS 1915
p1334
(dp1335
g3
(I244
I84
I124
tp1336
ssVPMS 327
p1337
(dp1338
g3
(I0
I140
I130
tp1339
ssVPMS 324
p1340
(dp1341
g3
(I170
I221
I214
tp1342
ssVPMS 325
p1343
(dp1344
g3
(I86
I201
I193
tp1345
ssVPMS 281
p1346
(dp1347
g3
(I0
I40
I104
tp1348
ssVPMS 280
p1349
(dp1350
g3
(I0
I43
I127
tp1351
ssVPMS 283
p1352
(dp1353
g3
(I155
I196
I226
tp1354
ssVPMS 282
p1355
(dp1356
g3
(I0
I38
I84
tp1357
ssVPMS 285
p1358
(dp1359
g3
(I58
I117
I196
tp1360
ssVPMS 284
p1361
(dp1362
g3
(I117
I170
I219
tp1363
ssVPMS 287
p1364
(dp1365
g3
(I0
I56
I147
tp1366
ssVPMS 286
p1367
(dp1368
g3
(I0
I56
I168
tp1369
ssVPMS 555
p1370
(dp1371
g3
(I7
I109
I84
tp1372
ssVPMS 554
p1373
(dp1374
g3
(I25
I94
I71
tp1375
ssVPMS 557
p1376
(dp1377
g3
(I163
I193
I173
tp1378
ssVPMS 556
p1379
(dp1380
g3
(I122
I168
I145
tp1381
ssVPMS 498
p1382
(dp1383
g3
(I109
I51
I43
tp1384
ssVPMS 499
p1385
(dp1386
g3
(I122
I56
I45
tp1387
ssVPMS 553
p1388
(dp1389
g3
(I35
I68
I53
tp1390
ssVPMS 552
p1391
(dp1392
g3
(I196
I214
I214
tp1393
ssVPMS 494
p1394
(dp1395
g3
(I242
I173
I178
tp1396
ssVPMS 495
p1397
(dp1398
g3
(I244
I188
I191
tp1399
ssVPMS 496
p1400
(dp1401
g3
(I247
I201
I198
tp1402
ssVPMS 497
p1403
(dp1404
g3
(I81
I40
I38
tp1405
ssVPMS 490
p1406
(dp1407
g3
(I91
I38
I38
tp1408
ssVPMS 491
p1409
(dp1410
g3
(I117
I40
I40
tp1411
ssVPMS 492
p1412
(dp1413
g3
(I145
I51
I56
tp1414
ssVPMS 658
p1415
(dp1416
g3
(I165
I175
I214
tp1417
ssVPMS 659
p1418
(dp1419
g3
(I127
I140
I191
tp1420
ssVPMS 656
p1421
(dp1422
g3
(I214
I219
I224
tp1423
ssVPMS 657
p1424
(dp1425
g3
(I193
I201
I221
tp1426
ssVPMS 654
p1427
(dp1428
g3
(I15
I43
I91
tp1429
ssVPMS 655
p1430
(dp1431
g3
(I12
I28
I71
tp1432
ssVPMS 652
p1433
(dp1434
g3
(I109
I135
I168
tp1435
ssVPMS 653
p1436
(dp1437
g3
(I51
I86
I135
tp1438
ssVPMS 650
p1439
(dp1440
g3
(I191
I198
I209
tp1441
ssVPMS 651
p1442
(dp1443
g3
(I155
I170
I191
tp1444
ssVPMS 5455
p1445
(dp1446
g3
(I214
I216
I211
tp1447
ssVPMS 3155
p1448
(dp1449
g3
(I0
I109
I117
tp1450
ssVPMS 4735
p1451
(dp1452
g3
(I204
I175
I155
tp1453
ssVPMS 630
p1454
(dp1455
g3
(I140
I204
I211
tp1456
ssVPMS 5395
p1457
(dp1458
g3
(I2
I40
I58
tp1459
ssVPMS 5523
p1460
(dp1461
g3
(I214
I221
I214
tp1462
ssVPMS 464 2X
p1463
(dp1464
g3
(I112
I66
I20
tp1465
ssVPMS 5255
p1466
(dp1467
g3
(I53
I38
I79
tp1468
ssVPMS 357
p1469
(dp1470
g3
(I33
I91
I51
tp1471
ssVPMS 356
p1472
(dp1473
g3
(I0
I122
I61
tp1474
ssVPMS 355
p1475
(dp1476
g3
(I0
I158
I73
tp1477
ssVPMS 354
p1478
(dp1479
g3
(I0
I183
I96
tp1480
ssVPMS 353
p1481
(dp1482
g3
(I132
I226
I168
tp1483
ssVPMS 352
p1484
(dp1485
g3
(I153
I229
I178
tp1486
ssVPMS 218
p1487
(dp1488
g3
(I237
I114
I170
tp1489
ssVPMS 219
p1490
(dp1491
g3
(I226
I40
I130
tp1492
ssVPMS 216
p1493
(dp1494
g3
(I124
I30
I63
tp1495
ssVPMS 217
p1496
(dp1497
g3
(I244
I191
I209
tp1498
ssVPMS 214
p1499
(dp1500
g3
(I204
I2
I86
tp1501
ssVPMS 215
p1502
(dp1503
g3
(I165
I5
I68
tp1504
ssVPMS 212
p1505
(dp1506
g3
(I249
I79
I142
tp1507
ssVPMS 213
p1508
(dp1509
g3
(I234
I15
I107
tp1510
ssVPMS 210
p1511
(dp1512
g3
(I255
I160
I191
tp1513
ssVPMS 211
p1514
(dp1515
g3
(I255
I119
I168
tp1516
ssVPMS 421
p1517
(dp1518
g3
(I191
I186
I175
tp1519
ssVPMS 420
p1520
(dp1521
g3
(I209
I204
I191
tp1522
ssVPMS 423
p1523
(dp1524
g3
(I150
I147
I142
tp1525
ssVPMS 422
p1526
(dp1527
g3
(I175
I170
I163
tp1528
ssVPMS 425
p1529
(dp1530
g3
(I96
I96
I91
tp1531
ssVPMS 424
p1532
(dp1533
g3
(I130
I127
I119
tp1534
ssVPMS 427
p1535
(dp1536
g3
(I221
I219
I209
tp1537
ssVPMS 426
p1538
(dp1539
g3
(I43
I43
I40
tp1540
ssVPMS 429
p1541
(dp1542
g3
(I173
I175
I170
tp1543
ssVPMS 428
p1544
(dp1545
g3
(I209
I206
I198
tp1546
ssVPMS 3025
p1547
(dp1548
g3
(I0
I84
I107
tp1549
ssVPMS 3375
p1550
(dp1551
g3
(I142
I226
I188
tp1552
ssVPMS 1575
p1553
(dp1554
g3
(I252
I135
I68
tp1555
ssVPMS 3275
p1556
(dp1557
g3
(I0
I178
I160
tp1558
ssVPMS 3272
p1559
(dp1560
g3
(I0
I170
I158
tp1561
ssVPMS 133
p1562
(dp1563
g3
(I112
I91
I10
tp1564
ssVPMS 132
p1565
(dp1566
g3
(I158
I124
I10
tp1567
ssVPMS 131
p1568
(dp1569
g3
(I198
I147
I10
tp1570
ssVPMS 130
p1571
(dp1572
g3
(I234
I175
I15
tp1573
ssVPMS 137
p1574
(dp1575
g3
(I252
I163
I17
tp1576
ssVPMS 136
p1577
(dp1578
g3
(I252
I191
I73
tp1579
ssVPMS 135
p1580
(dp1581
g3
(I252
I201
I99
tp1582
ssVPMS 134
p1583
(dp1584
g3
(I255
I216
I127
tp1585
ssVPMS 116 2X
p1586
(dp1587
g3
(I247
I181
I12
tp1588
ssVPMS 139
p1589
(dp1590
g3
(I175
I117
I5
tp1591
ssVPMS 138
p1592
(dp1593
g3
(I216
I140
I2
tp1594
ssVPMS 2705
p1595
(dp1596
g3
(I173
I158
I211
tp1597
ssVPMS 2707
p1598
(dp1599
g3
(I191
I209
I229
tp1600
ssVPMS 2706
p1601
(dp1602
g3
(I209
I206
I221
tp1603
ssVPMS 3975
p1604
(dp1605
g3
(I181
I168
I12
tp1606
ssVPMS 669
p1607
(dp1608
g3
(I71
I43
I89
tp1609
ssVPMS 5783
p1610
(dp1611
g3
(I181
I181
I142
tp1612
ssVPMS 2708
p1613
(dp1614
g3
(I175
I188
I219
tp1615
ssVPMS 5635
p1616
(dp1617
g3
(I158
I170
I153
tp1618
ssVPMS 1255
p1619
(dp1620
g3
(I163
I127
I20
tp1621
ssVPMS 4495
p1622
(dp1623
g3
(I135
I117
I48
tp1624
ssVPMS 726
p1625
(dp1626
g3
(I237
I211
I181
tp1627
ssVPMS 2685
p1628
(dp1629
g3
(I86
I0
I140
tp1630
ssVPMS 724
p1631
(dp1632
g3
(I142
I73
I5
tp1633
ssVPMS 668
p1634
(dp1635
g3
(I102
I73
I117
tp1636
ssVPMS 689
p1637
(dp1638
g3
(I147
I66
I102
tp1639
ssVPMS 688
p1640
(dp1641
g3
(I178
I102
I132
tp1642
ssVPMS 720
p1643
(dp1644
g3
(I239
I196
I158
tp1645
ssVPMS 721
p1646
(dp1647
g3
(I232
I178
I130
tp1648
ssVPMS 685
p1649
(dp1650
g3
(I234
I191
I196
tp1651
ssVPMS 684
p1652
(dp1653
g3
(I239
I204
I206
tp1654
ssVPMS 687
p1655
(dp1656
g3
(I201
I137
I158
tp1657
ssVPMS 686
p1658
(dp1659
g3
(I224
I170
I186
tp1660
ssVPMS 681
p1661
(dp1662
g3
(I183
I114
I142
tp1663
ssVPMS 680
p1664
(dp1665
g3
(I211
I158
I175
tp1666
ssVPMS 683
p1667
(dp1668
g3
(I127
I40
I79
tp1669
ssVPMS 682
p1670
(dp1671
g3
(I160
I81
I117
tp1672
ssVPMS 2995
p1673
(dp1674
g3
(I0
I165
I219
tp1675
ssVPMS 727
p1676
(dp1677
g3
(I226
I191
I155
tp1678
ssVPMS 1385
p1679
(dp1680
g3
(I204
I122
I2
tp1681
ssVPMS 718
p1682
(dp1683
g3
(I191
I91
I0
tp1684
ssVPMS 1775
p1685
(dp1686
g3
(I249
I132
I142
tp1687
ssVPMS 1777
p1688
(dp1689
g3
(I252
I102
I117
tp1690
ssVPMS 725
p1691
(dp1692
g3
(I117
I56
I2
tp1693
ssVPMS 1675
p1694
(dp1695
g3
(I165
I63
I15
tp1696
ssVPMS 723
p1697
(dp1698
g3
(I186
I117
I48
tp1699
ssVPMS 5845
p1700
(dp1701
g3
(I178
I170
I112
tp1702
ssVPMS 714
p1703
(dp1704
g3
(I249
I186
I130
tp1705
ssVPMS 4515
p1706
(dp1707
g3
(I188
I173
I117
tp1708
ssVPMS 1955
p1709
(dp1710
g3
(I147
I22
I56
tp1711
ssVPMS 5025
p1712
(dp1713
g3
(I226
I188
I183
tp1714
ssVPMS 2425
p1715
(dp1716
g3
(I135
I0
I91
tp1717
ssVPMS 1405
p1718
(dp1719
g3
(I107
I71
I20
tp1720
ssVPMS 712
p1721
(dp1722
g3
(I255
I211
I170
tp1723
ssVPMS 1817
p1724
(dp1725
g3
(I91
I45
I40
tp1726
ssVPMS 1810
p1727
(dp1728
g3
(I124
I33
I30
tp1729
ssVPMS 5507
p1730
(dp1731
g3
(I175
I186
I178
tp1732
ssVPMS 810
p1733
(dp1734
g3
(I255
I204
I30
tp1735
ssVPMS 811
p1736
(dp1737
g3
(I255
I114
I71
tp1738
ssVPMS 812
p1739
(dp1740
g3
(I252
I35
I102
tp1741
ssVPMS 813
p1742
(dp1743
g3
(I229
I0
I153
tp1744
ssVPMS 1797
p1745
(dp1746
g3
(I204
I45
I48
tp1747
ssVPMS 510
p1748
(dp1749
g3
(I244
I198
I201
tp1750
ssVPMS 1795
p1751
(dp1752
g3
(I214
I40
I40
tp1753
ssVPMS 709
p1754
(dp1755
g3
(I242
I104
I119
tp1756
ssVPMS 612
p1757
(dp1758
g3
(I196
I186
I0
tp1759
ssVPMS 414
p1760
(dp1761
g3
(I181
I175
I160
tp1762
ssVPMS 610
p1763
(dp1764
g3
(I226
I219
I114
tp1765
ssVPMS 4995
p1766
(dp1767
g3
(I165
I107
I109
tp1768
ssVPMS 616
p1769
(dp1770
g3
(I221
I214
I155
tp1771
ssVPMS 617
p1772
(dp1773
g3
(I204
I196
I124
tp1774
ssVPMS 614
p1775
(dp1776
g3
(I234
I226
I183
tp1777
ssVPMS 615
p1778
(dp1779
g3
(I226
I219
I170
tp1780
ssVPMS 618
p1781
(dp1782
g3
(I181
I170
I89
tp1783
ssVPMS 619
p1784
(dp1785
g3
(I150
I140
I40
tp1786
ssVPMS 1495
p1787
(dp1788
g3
(I255
I153
I63
tp1789
ssVPMS 729
p1790
(dp1791
g3
(I193
I142
I96
tp1792
ssVPMS 2905
p1793
(dp1794
g3
(I147
I198
I224
tp1795
ssVPMS 371
p1796
(dp1797
g3
(I86
I107
I33
tp1798
ssVPMS 185 2X
p1799
(dp1800
g3
(I209
I22
I0
tp1801
ssVPMS 370
p1802
(dp1803
g3
(I86
I142
I20
tp1804
ssVPMS 804 2X
p1805
(dp1806
g3
(I255
I127
I30
tp1807
ssVPMS 5135
p1808
(dp1809
g3
(I147
I107
I127
tp1810
ssVPMS 252
p1811
(dp1812
g3
(I211
I107
I198
tp1813
ssVPMS 253
p1814
(dp1815
g3
(I175
I35
I165
tp1816
ssVPMS 250
p1817
(dp1818
g3
(I237
I196
I221
tp1819
ssVPMS 251
p1820
(dp1821
g3
(I226
I158
I214
tp1822
ssVPMS 256
p1823
(dp1824
g3
(I229
I196
I214
tp1825
ssVPMS 257
p1826
(dp1827
g3
(I211
I165
I201
tp1828
ssVPMS 254
p1829
(dp1830
g3
(I160
I45
I150
tp1831
ssVPMS 255
p1832
(dp1833
g3
(I119
I45
I107
tp1834
ssVPMS 5115
p1835
(dp1836
g3
(I79
I33
I58
tp1837
ssVPMS 258
p1838
(dp1839
g3
(I155
I79
I150
tp1840
ssVPMS 259
p1841
(dp1842
g3
(I114
I22
I107
tp1843
ssVPMS 1925
p1844
(dp1845
g3
(I224
I7
I71
tp1846
ssVPMS 5445
p1847
(dp1848
g3
(I196
I204
I204
tp1849
ssVPMS 465
p1850
(dp1851
g3
(I193
I168
I117
tp1852
ssVPMS 464
p1853
(dp1854
g3
(I135
I96
I40
tp1855
ssVPMS 319
p1856
(dp1857
g3
(I76
I206
I209
tp1858
ssVPMS 318
p1859
(dp1860
g3
(I147
I221
I219
tp1861
ssVPMS 461
p1862
(dp1863
g3
(I237
I229
I173
tp1864
ssVPMS 460
p1865
(dp1866
g3
(I234
I221
I150
tp1867
ssVPMS 463
p1868
(dp1869
g3
(I117
I84
I38
tp1870
ssVPMS 462
p1871
(dp1872
g3
(I91
I71
I35
tp1873
ssVPMS 313
p1874
(dp1875
g3
(I0
I153
I181
tp1876
ssVPMS 312
p1877
(dp1878
g3
(I0
I173
I198
tp1879
ssVPMS 311
p1880
(dp1881
g3
(I40
I196
I216
tp1882
ssVPMS 310
p1883
(dp1884
g3
(I114
I209
I221
tp1885
ssVPMS 317
p1886
(dp1887
g3
(I201
I232
I221
tp1888
ssVPMS 316
p1889
(dp1890
g3
(I0
I73
I79
tp1891
ssVPMS 315
p1892
(dp1893
g3
(I0
I107
I119
tp1894
ssVPMS 314
p1895
(dp1896
g3
(I0
I130
I155
tp1897
ssVPMS 667
p1898
(dp1899
g3
(I127
I102
I137
tp1900
ssVPMS 379
p1901
(dp1902
g3
(I224
I234
I104
tp1903
ssVPMS 665
p1904
(dp1905
g3
(I198
I181
I196
tp1906
ssVPMS 664
p1907
(dp1908
g3
(I216
I204
I209
tp1909
ssVPMS 663
p1910
(dp1911
g3
(I226
I211
I214
tp1912
ssVPMS 662
p1913
(dp1914
g3
(I12
I25
I117
tp1915
ssVPMS 508
p1916
(dp1917
g3
(I232
I165
I175
tp1918
ssVPMS 375 2X
p1919
(dp1920
g3
(I84
I188
I0
tp1921
ssVPMS 506
p1922
(dp1923
g3
(I122
I38
I56
tp1924
ssVPMS 507
p1925
(dp1926
g3
(I216
I137
I155
tp1927
ssVPMS 504
p1928
(dp1929
g3
(I81
I30
I38
tp1930
ssVPMS 505
p1931
(dp1932
g3
(I102
I30
I43
tp1933
ssVPMS 502
p1934
(dp1935
g3
(I242
I198
I196
tp1936
ssVPMS 503
p1937
(dp1938
g3
(I244
I209
I204
tp1939
ssVPMS 500
p1940
(dp1941
g3
(I206
I137
I140
tp1942
ssVPMS 501
p1943
(dp1944
g3
(I234
I178
I178
tp1945
ssVPMS 3435
p1946
(dp1947
g3
(I2
I73
I48
tp1948
ssVPMS 805 2X
p1949
(dp1950
g3
(I249
I58
I43
tp1951
ssVPMS 4645
p1952
(dp1953
g3
(I178
I130
I96
tp1954
ssVPMS 5295
p1955
(dp1956
g3
(I178
I168
I181
tp1957
ssVPMS 3248
p1958
(dp1959
g3
(I122
I211
I193
tp1960
ssVPMS 5477
p1961
(dp1962
g3
(I58
I86
I79
tp1963
ssVPMS 227
p1964
(dp1965
g3
(I173
I0
I91
tp1966
ssVPMS 226
p1967
(dp1968
g3
(I214
I2
I112
tp1969
ssVPMS 225
p1970
(dp1971
g3
(I237
I40
I147
tp1972
ssVPMS 224
p1973
(dp1974
g3
(I244
I107
I175
tp1975
ssVPMS 223
p1976
(dp1977
g3
(I249
I147
I196
tp1978
ssVPMS 222
p1979
(dp1980
g3
(I112
I25
I61
tp1981
ssVPMS 221
p1982
(dp1983
g3
(I147
I0
I66
tp1984
ssVPMS 220
p1985
(dp1986
g3
(I170
I0
I79
tp1987
ssVPMS 3935
p1988
(dp1989
g3
(I242
I237
I109
tp1990
ssVPMS 3285
p1991
(dp1992
g3
(I0
I153
I135
tp1993
ssVPMS 3282
p1994
(dp1995
g3
(I0
I140
I130
tp1996
ssVPMS 229
p1997
(dp1998
g3
(I109
I33
I63
tp1999
ssVPMS 228
p2000
(dp2001
g3
(I140
I0
I76
tp2002
ssVPMS 527
p2003
(dp2004
g3
(I122
I30
I153
tp2005
ssVPMS 3115
p2006
(dp2007
g3
(I45
I198
I214
tp2008
ssVPMS 472
p2009
(dp2010
g3
(I234
I170
I122
tp2011
ssVPMS 2645
p2012
(dp2013
g3
(I181
I145
I209
tp2014
ssVPMS 1625
p2015
(dp2016
g3
(I249
I165
I140
tp2017
ssVPMS 473
p2018
(dp2019
g3
(I244
I196
I160
tp2020
ssVPMS 3305
p2021
(dp2022
g3
(I0
I79
I66
tp2023
ssVPMS 3302
p2024
(dp2025
g3
(I0
I73
I63
tp2026
ssVPMS 1585
p2027
(dp2028
g3
(I249
I107
I7
tp2029
ssVPMS 810 2X
p2030
(dp2031
g3
(I255
I188
I33
tp2032
ssVPMS 4485
p2033
(dp2034
g3
(I96
I76
I17
tp2035
ssVPMS 168
p2036
(dp2037
g3
(I109
I48
I17
tp2038
ssVPMS 169
p2039
(dp2040
g3
(I249
I186
I170
tp2041
ssVPMS 164
p2042
(dp2043
g3
(I252
I127
I63
tp2044
ssVPMS 165
p2045
(dp2046
g3
(I249
I99
I2
tp2047
ssVPMS 166
p2048
(dp2049
g3
(I221
I89
I0
tp2050
ssVPMS 167
p2051
(dp2052
g3
(I188
I79
I7
tp2053
ssVPMS 160
p2054
(dp2055
g3
(I158
I84
I10
tp2056
ssVPMS 161
p2057
(dp2058
g3
(I99
I58
I17
tp2059
ssVPMS 162
p2060
(dp2061
g3
(I249
I198
I170
tp2062
ssVPMS 163
p2063
(dp2064
g3
(I252
I158
I112
tp2065
ssVPMS 2635
p2066
(dp2067
g3
(I201
I173
I216
tp2068
ssVPMS 2738
p2069
(dp2070
g3
(I45
I0
I142
tp2071
ssVPMS 2735
p2072
(dp2073
g3
(I79
I0
I147
tp2074
ssVPMS 2736
p2075
(dp2076
g3
(I73
I48
I173
tp2077
ssVPMS 3945
p2078
(dp2079
g3
(I239
I234
I7
tp2080
ssVPMS 2395
p2081
(dp2082
g3
(I196
I0
I140
tp2083
ssVPMS 1365
p2084
(dp2085
g3
(I252
I186
I94
tp2086
ssVPMS 558
p2087
(dp2088
g3
(I183
I206
I188
tp2089
ssVPMS 5665
p2090
(dp2091
g3
(I214
I214
I198
tp2092
ssVPMS 3425
p2093
(dp2094
g3
(I0
I104
I71
tp2095
ssVPMS 2622
p2096
(dp2097
g3
(I96
I45
I89
tp2098
ssVPMS 719
p2099
(dp2100
g3
(I244
I209
I175
tp2101
ssVPMS 2623
p2102
(dp2103
g3
(I91
I25
I94
tp2104
ssVPMS 717
p2105
(dp2106
g3
(I211
I109
I0
tp2107
ssVPMS 716
p2108
(dp2109
g3
(I242
I132
I17
tp2110
ssVPMS 715
p2111
(dp2112
g3
(I252
I158
I73
tp2113
ssVPMS 5185
p2114
(dp2115
g3
(I71
I40
I53
tp2116
ssVPMS 713
p2117
(dp2118
g3
(I249
I201
I163
tp2119
ssVPMS 676
p2120
(dp2121
g3
(I160
I0
I84
tp2122
ssVPMS 711
p2123
(dp2124
g3
(I209
I45
I51
tp2125
ssVPMS 710
p2126
(dp2127
g3
(I224
I66
I81
tp2128
ssVPMS 2945
p2129
(dp2130
g3
(I0
I84
I160
tp2131
ssVPMS 677
p2132
(dp2133
g3
(I237
I214
I214
tp2134
ssVPMS 4635
p2135
(dp2136
g3
(I140
I89
I51
tp2137
ssVPMS 1215
p2138
(dp2139
g3
(I249
I224
I140
tp2140
ssVPMS 296
p2141
(dp2142
g3
(I0
I45
I71
tp2143
ssVPMS 297
p2144
(dp2145
g3
(I130
I198
I226
tp2146
ssVPMS 294
p2147
(dp2148
g3
(I0
I63
I135
tp2149
ssVPMS 295
p2150
(dp2151
g3
(I0
I56
I107
tp2152
ssVPMS 292
p2153
(dp2154
g3
(I117
I178
I221
tp2155
ssVPMS 293
p2156
(dp2157
g3
(I0
I81
I186
tp2158
ssVPMS 290
p2159
(dp2160
g3
(I196
I216
I226
tp2161
ssVPMS 291
p2162
(dp2163
g3
(I168
I206
I226
tp2164
ssVPMS 5835
p2165
(dp2166
g3
(I158
I153
I89
tp2167
ssVPMS 4545
p2168
(dp2169
g3
(I229
I219
I186
tp2170
ssVPMS 298
p2171
(dp2172
g3
(I81
I181
I224
tp2173
ssVPMS 299
p2174
(dp2175
g3
(I0
I163
I221
tp2176
ssVPMS 5405
p2177
(dp2178
g3
(I63
I96
I117
tp2179
ssVPMS 640
p2180
(dp2181
g3
(I0
I140
I178
tp2182
ssVPMS 5015
p2183
(dp2184
g3
(I216
I173
I168
tp2185
ssVPMS 572
p2186
(dp2187
g3
(I188
I226
I206
tp2188
ssVPMS 5793
p2189
(dp2190
g3
(I198
I198
I165
tp2191
ssVPMS 542
p2192
(dp2193
g3
(I102
I147
I188
tp2194
ssVPMS 543
p2195
(dp2196
g3
(I147
I183
I209
tp2197
ssVPMS 540
p2198
(dp2199
g3
(I0
I51
I91
tp2200
ssVPMS 541
p2201
(dp2202
g3
(I0
I63
I119
tp2203
ssVPMS 546
p2204
(dp2205
g3
(I12
I56
I68
tp2206
ssVPMS 547
p2207
(dp2208
g3
(I0
I63
I84
tp2209
ssVPMS 544
p2210
(dp2211
g3
(I183
I204
I219
tp2212
ssVPMS 545
p2213
(dp2214
g3
(I196
I211
I221
tp2215
ssVPMS 678
p2216
(dp2217
g3
(I234
I204
I206
tp2218
ssVPMS 548
p2219
(dp2220
g3
(I0
I68
I89
tp2221
ssVPMS 549
p2222
(dp2223
g3
(I94
I153
I170
tp2224
ssVPMS 679
p2225
(dp2226
g3
(I229
I191
I198
tp2227
ssVPMS 643
p2228
(dp2229
g3
(I198
I209
I214
tp2230
ssVPMS 629
p2231
(dp2232
g3
(I178
I216
I216
tp2233
ssVPMS 5743
p2234
(dp2235
g3
(I63
I73
I38
tp2236
ssVPMS 623
p2237
(dp2238
g3
(I165
I191
I170
tp2239
ssVPMS 5595
p2240
(dp2241
g3
(I216
I219
I204
tp2242
ssVPMS 621
p2243
(dp2244
g3
(I216
I221
I206
tp2245
ssVPMS 5497
p2246
(dp2247
g3
(I145
I163
I153
tp2248
ssVPMS 627
p2249
(dp2250
g3
(I12
I48
I38
tp2251
ssVPMS 626
p2252
(dp2253
g3
(I33
I84
I63
tp2254
ssVPMS 625
p2255
(dp2256
g3
(I91
I135
I114
tp2257
ssVPMS 5493
p2258
(dp2259
g3
(I140
I175
I173
tp2260
ssVPMS 3165
p2261
(dp2262
g3
(I0
I86
I91
tp2263
ssVPMS 4725
p2264
(dp2265
g3
(I181
I145
I124
tp2266
ssVPMS 5747
p2267
(dp2268
g3
(I66
I71
I22
tp2269
ssVPMS 814
p2270
(dp2271
g3
(I140
I96
I193
tp2272
ssVPMS 5245
p2273
(dp2274
g3
(I229
I211
I204
tp2275
ssVPMS 5535
p2276
(dp2277
g3
(I33
I61
I48
tp2278
ssVPMS 344
p2279
(dp2280
g3
(I181
I226
I191
tp2281
ssVPMS 345
p2282
(dp2283
g3
(I150
I216
I175
tp2284
ssVPMS 269
p2285
(dp2286
g3
(I68
I35
I89
tp2287
ssVPMS 268
p2288
(dp2289
g3
(I79
I33
I112
tp2290
ssVPMS 340
p2291
(dp2292
g3
(I0
I153
I119
tp2293
ssVPMS 341
p2294
(dp2295
g3
(I0
I122
I94
tp2296
ssVPMS 342
p2297
(dp2298
g3
(I0
I107
I84
tp2299
ssVPMS 343
p2300
(dp2301
g3
(I0
I86
I63
tp2302
ssVPMS 263
p2303
(dp2304
g3
(I224
I206
I224
tp2305
ssVPMS 262
p2306
(dp2307
g3
(I84
I35
I68
tp2308
ssVPMS 261
p2309
(dp2310
g3
(I94
I33
I84
tp2311
ssVPMS 260
p2312
(dp2313
g3
(I104
I30
I91
tp2314
ssVPMS 267
p2315
(dp2316
g3
(I89
I17
I142
tp2317
ssVPMS 266
p2318
(dp2319
g3
(I109
I40
I170
tp2320
ssVPMS 265
p2321
(dp2322
g3
(I150
I99
I196
tp2323
ssVPMS 264
p2324
(dp2325
g3
(I198
I170
I219
tp2326
ssVPMS 537
p2327
(dp2328
g3
(I196
I198
I206
tp2329
ssVPMS 536
p2330
(dp2331
g3
(I173
I178
I193
tp2332
ssVPMS 535
p2333
(dp2334
g3
(I155
I163
I183
tp2335
ssVPMS 534
p2336
(dp2337
g3
(I58
I73
I114
tp2338
ssVPMS 533
p2339
(dp2340
g3
(I53
I63
I91
tp2341
ssVPMS 4745
p2342
(dp2343
g3
(I216
I191
I170
tp2344
ssVPMS 438
p2345
(dp2346
g3
(I89
I63
I61
tp2347
ssVPMS 3015
p2348
(dp2349
g3
(I0
I112
I158
tp2350
ssVPMS 436
p2351
(dp2352
g3
(I188
I165
I158
tp2353
ssVPMS 437
p2354
(dp2355
g3
(I140
I112
I107
tp2356
ssVPMS 434
p2357
(dp2358
g3
(I224
I209
I198
tp2359
ssVPMS 435
p2360
(dp2361
g3
(I211
I191
I183
tp2362
ssVPMS 432
p2363
(dp2364
g3
(I68
I79
I81
tp2365
ssVPMS 433
p2366
(dp2367
g3
(I48
I56
I58
tp2368
ssVPMS 430
p2369
(dp2370
g3
(I145
I150
I147
tp2371
ssVPMS 431
p2372
(dp2373
g3
(I102
I109
I112
tp2374
ssVPMS 1545
p2375
(dp2376
g3
(I71
I34
I0
tp2377
ssVPMS 2767
p2378
(dp2379
g3
(I20
I33
I61
tp2380
ssVPMS 2766
p2381
(dp2382
g3
(I43
I38
I91
tp2383
ssVPMS 2765
p2384
(dp2385
g3
(I43
I12
I86
tp2386
ssVPMS 613
p2387
(dp2388
g3
(I175
I160
I12
tp2389
ssVPMS 3268
p2390
(dp2391
g3
(I0
I175
I153
tp2392
ssVPMS 2768
p2393
(dp2394
g3
(I17
I33
I81
tp2395
ssVPMS 120
p2396
(dp2397
g3
(I249
I226
I127
tp2398
ssVPMS 121
p2399
(dp2400
g3
(I249
I224
I112
tp2401
ssVPMS 122
p2402
(dp2403
g3
(I252
I216
I86
tp2404
ssVPMS 123
p2405
(dp2406
g3
(I255
I198
I30
tp2407
ssVPMS 124
p2408
(dp2409
g3
(I224
I170
I15
tp2410
ssVPMS 125
p2411
(dp2412
g3
(I181
I140
I10
tp2413
ssVPMS 126
p2414
(dp2415
g3
(I163
I130
I5
tp2416
ssVPMS 127
p2417
(dp2418
g3
(I244
I226
I135
tp2419
ssVPMS 128
p2420
(dp2421
g3
(I244
I219
I96
tp2422
ssVPMS 129
p2423
(dp2424
g3
(I242
I209
I61
tp2425
ssVPMS 4755
p2426
(dp2427
g3
(I226
I204
I186
tp2428
ssVPMS 620
p2429
(dp2430
g3
(I132
I119
I17
tp2431
ssVPMS 529
p2432
(dp2433
g3
(I206
I163
I211
tp2434
ssVPMS 5235
p2435
(dp2436
g3
(I221
I198
I196
tp2437
ssVPMS 478
p2438
(dp2439
g3
(I122
I63
I40
tp2440
ssVPMS 624
p2441
(dp2442
g3
(I127
I160
I140
tp2443
ssVPMS 1245
p2444
(dp2445
g3
(I191
I145
I12
tp2446
ssVPMS 5625
p2447
(dp2448
g3
(I114
I132
I112
tp2449
ssVPMS 5435
p2450
(dp2451
g3
(I175
I188
I191
tp2452
ssVPMS 479
p2453
(dp2454
g3
(I175
I137
I112
tp2455
ssVPMS 2695
p2456
(dp2457
g3
(I68
I35
I94
tp2458
ssVPMS 4685
p2459
(dp2460
g3
(I237
I211
I188
tp2461
ssVPMS 692
p2462
(dp2463
g3
(I232
I191
I186
tp2464
ssVPMS 693
p2465
(dp2466
g3
(I219
I168
I165
tp2467
ssVPMS 433 2X
p2468
(dp2469
g3
(I10
I12
I17
tp2470
ssVPMS 691
p2471
(dp2472
g3
(I239
I209
I201
tp2473
ssVPMS 696
p2474
(dp2475
g3
(I142
I71
I73
tp2476
ssVPMS 697
p2477
(dp2478
g3
(I127
I56
I58
tp2479
ssVPMS 694
p2480
(dp2481
g3
(I201
I140
I140
tp2482
ssVPMS 695
p2483
(dp2484
g3
(I178
I107
I112
tp2485
ssVPMS 812 2X
p2486
(dp2487
g3
(I252
I7
I79
tp2488
ssVPMS 194
p2489
(dp2490
g3
(I153
I33
I53
tp2491
ssVPMS 197
p2492
(dp2493
g3
(I246
I165
I190
tp2494
ssVPMS 196
p2495
(dp2496
g3
(I250
I213
I225
tp2497
ssVPMS 191
p2498
(dp2499
g3
(I244
I71
I107
tp2500
ssVPMS 190
p2501
(dp2502
g3
(I252
I117
I142
tp2503
ssVPMS 2985
p2504
(dp2505
g3
(I81
I191
I226
tp2506
ssVPMS 192
p2507
(dp2508
g3
(I229
I5
I58
tp2509
ssVPMS 1395
p2510
(dp2511
g3
(I153
I96
I7
tp2512
ssVPMS 2597
p2513
(dp2514
g3
(I102
I0
I140
tp2515
ssVPMS 199
p2516
(dp2517
g3
(I160
I39
I75
tp2518
ssVPMS 198
p2519
(dp2520
g3
(I239
I91
I132
tp2521
ssVPMS 2592
p2522
(dp2523
g3
(I147
I15
I165
tp2524
ssVPMS 2593
p2525
(dp2526
g3
(I135
I43
I147
tp2527
ssVPMS 1665
p2528
(dp2529
g3
(I221
I79
I5
tp2530
ssVPMS 2607
p2531
(dp2532
g3
(I91
I2
I122
tp2533
ssVPMS 2602
p2534
(dp2535
g3
(I130
I12
I142
tp2536
ssVPMS 2603
p2537
(dp2538
g3
(I112
I20
I122
tp2539
ssVPMS 393
p2540
(dp2541
g3
(I242
I239
I135
tp2542
ssVPMS 392
p2543
(dp2544
g3
(I132
I130
I5
tp2545
ssVPMS 391
p2546
(dp2547
g3
(I158
I158
I7
tp2548
ssVPMS 390
p2549
(dp2550
g3
(I186
I196
I5
tp2551
ssVPMS 397
p2552
(dp2553
g3
(I193
I191
I10
tp2554
ssVPMS 396
p2555
(dp2556
g3
(I224
I226
I12
tp2557
ssVPMS 395
p2558
(dp2559
g3
(I229
I232
I17
tp2560
ssVPMS 394
p2561
(dp2562
g3
(I234
I237
I53
tp2563
ssVPMS 399
p2564
(dp2565
g3
(I153
I142
I7
tp2566
ssVPMS 398
p2567
(dp2568
g3
(I175
I168
I10
tp2569
ssVPMS 1807
p2570
(dp2571
g3
(I160
I48
I51
tp2572
ssVPMS 587
p2573
(dp2574
g3
(I232
I232
I155
tp2575
ssVPMS 1805
p2576
(dp2577
g3
(I175
I38
I38
tp2578
ssVPMS 585
p2579
(dp2580
g3
(I219
I224
I107
tp2581
ssVPMS 5757
p2582
(dp2583
g3
(I107
I112
I43
tp2584
ssVPMS 583
p2585
(dp2586
g3
(I170
I186
I10
tp2587
ssVPMS 580
p2588
(dp2589
g3
(I216
I221
I181
tp2590
ssVPMS 581
p2591
(dp2592
g3
(I96
I94
I17
tp2593
ssVPMS 5275
p2594
(dp2595
g3
(I96
I86
I119
tp2596
ssVPMS 524
p2597
(dp2598
g3
(I226
I204
I211
tp2599
ssVPMS 728
p2600
(dp2601
g3
(I211
I168
I124
tp2602
ssVPMS 1485
p2603
(dp2604
g3
(I255
I183
I119
tp2605
ssVPMS 1895
p2606
(dp2607
g3
(I252
I191
I201
tp2608
ssVPMS 2935
p2609
(dp2610
g3
(I0
I91
I191
tp2611
ssVPMS 5265
p2612
(dp2613
g3
(I73
I61
I99
tp2614
ssVPMS 5285
p2615
(dp2616
g3
(I140
I130
I153
tp2617
ssVPMS 1788 2X
p2618
(dp2619
g3
(I214
I33
I0
tp2620
ssVPMS 5575
p2621
(dp2622
g3
(I175
I191
I173
tp2623
ssVPMS 2613
p2624
(dp2625
g3
(I102
I17
I109
tp2626
ssVPMS 5473
p2627
(dp2628
g3
(I38
I104
I109
tp2629
ssVPMS 1935
p2630
(dp2631
g3
(I193
I5
I56
tp2632
ssVPMS 809 2X
p2633
(dp2634
g3
(I214
I214
I12
tp2635
ssVPMS 308
p2636
(dp2637
g3
(I0
I96
I124
tp2638
ssVPMS 309
p2639
(dp2640
g3
(I0
I63
I73
tp2641
ssVPMS 470
p2642
(dp2643
g3
(I155
I79
I25
tp2644
ssVPMS 471
p2645
(dp2646
g3
(I188
I94
I30
tp2647
ssVPMS 476
p2648
(dp2649
g3
(I89
I61
I43
tp2650
ssVPMS 477
p2651
(dp2652
g3
(I99
I56
I38
tp2653
ssVPMS 474
p2654
(dp2655
g3
(I244
I204
I170
tp2656
ssVPMS 475
p2657
(dp2658
g3
(I247
I211
I181
tp2659
ssVPMS 300
p2660
(dp2661
g3
(I0
I114
I198
tp2662
ssVPMS 301
p2663
(dp2664
g3
(I0
I91
I153
tp2665
ssVPMS 302
p2666
(dp2667
g3
(I0
I79
I109
tp2668
ssVPMS 303
p2669
(dp2670
g3
(I0
I63
I84
tp2671
ssVPMS 304
p2672
(dp2673
g3
(I165
I221
I226
tp2674
ssVPMS 305
p2675
(dp2676
g3
(I112
I206
I226
tp2677
ssVPMS 306
p2678
(dp2679
g3
(I0
I188
I226
tp2680
ssVPMS 307
p2681
(dp2682
g3
(I0
I122
I165
tp2683
ssVPMS 674
p2684
(dp2685
g3
(I211
I107
I158
tp2686
ssVPMS 675
p2687
(dp2688
g3
(I188
I56
I119
tp2689
ssVPMS 579
p2690
(dp2691
g3
(I201
I214
I163
tp2692
ssVPMS 578
p2693
(dp2694
g3
(I198
I214
I160
tp2695
ssVPMS 670
p2696
(dp2697
g3
(I242
I214
I216
tp2698
ssVPMS 671
p2699
(dp2700
g3
(I239
I198
I211
tp2701
ssVPMS 672
p2702
(dp2703
g3
(I234
I170
I196
tp2704
ssVPMS 673
p2705
(dp2706
g3
(I224
I140
I178
tp2707
ssVPMS 573
p2708
(dp2709
g3
(I204
I229
I214
tp2710
ssVPMS 4975
p2711
(dp2712
g3
(I68
I30
I28
tp2713
ssVPMS 571
p2714
(dp2715
g3
(I170
I219
I198
tp2716
ssVPMS 570
p2717
(dp2718
g3
(I127
I198
I178
tp2719
ssVPMS 577
p2720
(dp2721
g3
(I181
I204
I142
tp2722
ssVPMS 576
p2723
(dp2724
g3
(I96
I142
I58
tp2725
ssVPMS 575
p2726
(dp2727
g3
(I84
I119
I48
tp2728
ssVPMS 574
p2729
(dp2730
g3
(I73
I89
I40
tp2731
ssVPMS 5125
p2732
(dp2733
g3
(I117
I71
I96
tp2734
ssVPMS 4655
p2735
(dp2736
g3
(I196
I153
I119
tp2737
ssVPMS 400
p2738
(dp2739
g3
(I209
I198
I181
tp2740
ssVPMS 346
p2741
(dp2742
g3
(I112
I206
I155
tp2743
ssVPMS 4715
p2744
(dp2745
g3
(I153
I112
I91
tp2746
ssVPMS 347
p2747
(dp2748
g3
(I0
I158
I96
tp2749
ssVPMS 234
p2750
(dp2751
g3
(I170
I0
I102
tp2752
ssVPMS 235
p2753
(dp2754
g3
(I142
I5
I84
tp2755
ssVPMS 236
p2756
(dp2757
g3
(I249
I175
I211
tp2758
ssVPMS 237
p2759
(dp2760
g3
(I244
I132
I196
tp2761
ssVPMS 230
p2762
(dp2763
g3
(I255
I160
I204
tp2764
ssVPMS 231
p2765
(dp2766
g3
(I252
I112
I186
tp2767
ssVPMS 232
p2768
(dp2769
g3
(I244
I63
I165
tp2770
ssVPMS 233
p2771
(dp2772
g3
(I206
I0
I124
tp2773
ssVPMS 526
p2774
(dp2775
g3
(I104
I33
I122
tp2776
ssVPMS 238
p2777
(dp2778
g3
(I237
I79
I175
tp2779
ssVPMS 239
p2780
(dp2781
g3
(I224
I33
I158
tp2782
ssVPMS 5175
p2783
(dp2784
g3
(I232
I214
I209
tp2785
ssVPMS 406
p2786
(dp2787
g3
(I206
I193
I181
tp2788
ssVPMS 405
p2789
(dp2790
g3
(I107
I94
I79
tp2791
ssVPMS 404
p2792
(dp2793
g3
(I130
I117
I102
tp2794
ssVPMS 403
p2795
(dp2796
g3
(I153
I140
I124
tp2797
ssVPMS 402
p2798
(dp2799
g3
(I175
I165
I147
tp2800
ssVPMS 401
p2801
(dp2802
g3
(I193
I181
I165
tp2803
ssVPMS 3125
p2804
(dp2805
g3
(I0
I183
I198
tp2806
ssVPMS 409
p2807
(dp2808
g3
(I153
I137
I124
tp2809
ssVPMS 408
p2810
(dp2811
g3
(I168
I153
I140
tp2812
ss.